-----BEGIN RSA PRIVATE KEY-----
MIICXQIBAAKBgQCfyMMLyixpVQb7Dhjm559iH/eI+bM5JOcgnq/zJ/ZSuOswIh6R
ERQ4vBPCzOVMa8h5+zcPPFQRW1BEuAYqO0J6/KDPUKkI21jyFkEoEEMj5rLIp8Pw
YWRdjX6VwlFbA00g3fjRI2iJywZmZYqmsoXksJzczAb5jXKl0xlEm3boKwIDAQAB
AoGAdvBqwAvuozm3yInl33vrGI/TIxM8Zf0iTxXQw5+rrEgaSeob9sBP3SujSg5b
YVeaE7L8eUrfCUx/o6eYbzdNdDHUXPCWdF759oANNqdbRxb3AsKeow2gYVrbMJAS
gyGdbj98+0UWzAgoB1v4PX2AreNHCRNHd/h7tIzdb0A0D4ECQQDTWSSK8DpQHedc
IIsEW07U3JMK8IQuY7tefwD/aT19MCRJpg24XTMIznOre1QotAMeG7wKo0yZXOV9
sfGVEcJFAkEAwYrCVvVRPn+Gr7JWEx2+eN43/zjRpRa4it7xpex26/TFA0MXCIvL
eKWFYylNDPpf/4uO8X8n9T27ljY6GcXfrwJBAKotIxGEsU+FZJ93zLgrVWRsXzH1
zFkWEO7b0M/Xy50bwHxU6sNCuC8lHVo8qd1EZSY/KsBeEPWEKX12ZJGlhQkCQD+2
M/94RkRyqp3P8THdysPzMy/bPnhAIIPmnFnom8VVED3gqgZwLo0Kv/xCrlClY1C2
Wln5Z+f9aHEsbLfrQZUCQQCmjZeEhTWclQQsHRctRUkjEJt20eic/ZA5LxpfrwHB
rwtIn7CknaCtk25CTF6/oTb3/dDxWz0TRK13SYKe3nXU
-----END RSA PRIVATE KEY-----
Certificate:
    Data:
        Version: 3 (0x2)
        Serial Number: 3 (0x3)
    Signature Algorithm: sha256WithRSAEncryption
        Issuer: C=KR, CN=kimtaeyang
        Validity
            Not Before: Mar  1 00:00:00 2014 GMT
            Not After : Feb 27 00:00:00 2024 GMT
        Subject: C=KR, CN=www.facebook.com
        Subject Public Key Info:
            Public Key Algorithm: rsaEncryption
                Public-Key: (1024 bit)
                Modulus:
                    00:9f:c8:c3:0b:ca:2c:69:55:06:fb:0e:18:e6:e7:
                    9f:62:1f:f7:88:f9:b3:39:24:e7:20:9e:af:f3:27:
                    f6:52:b8:eb:30:22:1e:91:11:14:38:bc:13:c2:cc:
                    e5:4c:6b:c8:79:fb:37:0f:3c:54:11:5b:50:44:b8:
                    06:2a:3b:42:7a:fc:a0:cf:50:a9:08:db:58:f2:16:
                    41:28:10:43:23:e6:b2:c8:a7:c3:f0:61:64:5d:8d:
                    7e:95:c2:51:5b:03:4d:20:dd:f8:d1:23:68:89:cb:
                    06:66:65:8a:a6:b2:85:e4:b0:9c:dc:cc:06:f9:8d:
                    72:a5:d3:19:44:9b:76:e8:2b
                Exponent: 65537 (0x10001)
        X509v3 extensions:
            X509v3 Basic Constraints: 
                CA:FALSE
            Netscape Comment: 
                OpenSSL Generated Certificate
            X509v3 Subject Key Identifier: 
                5B:57:28:1B:F5:F6:89:24:6F:96:8F:2C:84:37:98:82:96:F2:C0:2A
            X509v3 Authority Key Identifier: 
                DirName:/C=KR/CN=kimtaeyang
                serial:9C:A1:7C:7F:D3:D8:2A:35

    Signature Algorithm: sha256WithRSAEncryption
         01:16:17:fa:f1:69:40:ff:21:93:a9:ed:1e:26:d0:a4:39:ae:
         15:01:a8:e5:30:2f:59:cc:6b:5a:53:0b:d0:9e:c6:4d:14:89:
         ae:d9:f8:06:f1:3a:31:dc:4b:2d:8e:d3:ea:da:57:fa:6f:67:
         01:ae:a7:11:17:7d:3e:60:fa:e7:ac:4f:4b:b1:49:f2:a4:51:
         34:f4:42:f6:d9:c4:1d:9f:2c:c5:4a:34:1b:63:35:db:1a:32:
         ab:8e:fc:94:14:1d:c4:91:4d:a7:12:70:c6:3c:62:d9:69:78:
         bc:91:56:3f:35:91:f4:10:a0:ea:e4:fd:61:ba:12:76:08:61:
         55:fa
-----BEGIN CERTIFICATE-----
MIICXjCCAcegAwIBAgIBAzANBgkqhkiG9w0BAQsFADAiMQswCQYDVQQGEwJLUjET
MBEGA1UEAwwKa2ltdGFleWFuZzAiGA8yMDE0MDMwMTAwMDAwMFoYDzIwMjQwMjI3
MDAwMDAwWjAoMQswCQYDVQQGEwJLUjEZMBcGA1UEAwwQd3d3LmZhY2Vib29rLmNv
bTCBnzANBgkqhkiG9w0BAQEFAAOBjQAwgYkCgYEAn8jDC8osaVUG+w4Y5uefYh/3
iPmzOSTnIJ6v8yf2UrjrMCIekREUOLwTwszlTGvIefs3DzxUEVtQRLgGKjtCevyg
z1CpCNtY8hZBKBBDI+ayyKfD8GFkXY1+lcJRWwNNIN340SNoicsGZmWKprKF5LCc
3MwG+Y1ypdMZRJt26CsCAwEAAaOBmTCBljAJBgNVHRMEAjAAMCwGCWCGSAGG+EIB
DQQfFh1PcGVuU1NMIEdlbmVyYXRlZCBDZXJ0aWZpY2F0ZTAdBgNVHQ4EFgQUW1co
G/X2iSRvlo8shDeYgpbywCowPAYDVR0jBDUwM6EmpCQwIjELMAkGA1UEBhMCS1Ix
EzARBgNVBAMMCmtpbXRhZXlhbmeCCQCcoXx/09gqNTANBgkqhkiG9w0BAQsFAAOB
gQABFhf68WlA/yGTqe0eJtCkOa4VAajlMC9ZzGtaUwvQnsZNFImu2fgG8Tox3Est
jtPq2lf6b2cBrqcRF30+YPrnrE9LsUnypFE09EL22cQdnyzFSjQbYzXbGjKrjvyU
FB3EkU2nEnDGPGLZaXi8kVY/NZH0EKDq5P1huhJ2CGFV+g==
-----END CERTIFICATE-----
