Certificate:
    Data:
        Version: 3 (0x2)
        Serial Number: 1 (0x1)
    Signature Algorithm: sha256WithRSAEncryption
        Issuer: C=KR, CN=kimtaeyang
        Validity
            Not Before: Mar  1 00:00:00 2014 GMT
            Not After : Feb 27 00:00:00 2024 GMT
        Subject: C=KR, CN=www.google.com
        Subject Public Key Info:
            Public Key Algorithm: rsaEncryption
                Public-Key: (1024 bit)
                Modulus:
                    00:c2:e2:c0:fd:44:94:c2:43:25:bc:46:b9:ec:d0:
                    80:7c:32:79:1d:59:92:3e:cc:01:2b:ce:e1:29:f1:
                    58:e3:27:16:38:91:8d:7a:11:5c:a4:05:0c:b8:8e:
                    8f:f9:97:eb:12:b2:6a:a9:a1:0b:ed:79:02:ab:05:
                    e6:00:c0:a3:29:51:01:a0:08:08:1f:44:b4:88:59:
                    41:fa:82:78:ee:c7:e7:26:59:39:f2:9c:72:e7:00:
                    10:a3:a3:8b:17:bb:11:9d:8b:ce:48:9f:e9:4c:b9:
                    57:2f:6a:61:37:b0:b8:d6:32:20:c8:a5:b0:b1:d3:
                    a7:74:da:3e:43:ed:1b:22:8b
                Exponent: 65537 (0x10001)
        X509v3 extensions:
            X509v3 Basic Constraints: 
                CA:FALSE
            Netscape Comment: 
                OpenSSL Generated Certificate
            X509v3 Subject Key Identifier: 
                43:24:C1:5E:77:E9:26:74:17:23:F0:AD:ED:0A:41:07:E1:5C:FE:98
            X509v3 Authority Key Identifier: 
                DirName:/C=KR/CN=kimtaeyang
                serial:9C:A1:7C:7F:D3:D8:2A:35

    Signature Algorithm: sha256WithRSAEncryption
         b6:88:8a:67:ad:6e:46:23:35:30:72:ab:6a:fb:a9:a7:56:53:
         1f:91:b4:a1:d7:ec:b5:49:6d:3d:d0:83:cc:03:c0:04:22:7f:
         0d:7a:d1:7a:ff:bf:a7:80:0c:6a:0d:d3:ad:37:60:ce:1f:43:
         4e:cb:36:ab:07:76:a7:50:a9:61:31:c8:c8:14:6c:de:20:02:
         bd:d7:11:71:cd:ac:12:c9:3f:48:3d:75:ab:23:18:a9:a8:c1:
         81:03:31:c7:64:39:73:1a:c0:a8:e4:f3:18:d7:dd:d7:01:38:
         aa:2c:8a:74:d2:d3:df:b0:be:dd:c7:fe:10:73:26:32:58:9b:
         40:86
-----BEGIN CERTIFICATE-----
MIICXDCCAcWgAwIBAgIBATANBgkqhkiG9w0BAQsFADAiMQswCQYDVQQGEwJLUjET
MBEGA1UEAwwKa2ltdGFleWFuZzAiGA8yMDE0MDMwMTAwMDAwMFoYDzIwMjQwMjI3
MDAwMDAwWjAmMQswCQYDVQQGEwJLUjEXMBUGA1UEAwwOd3d3Lmdvb2dsZS5jb20w
gZ8wDQYJKoZIhvcNAQEBBQADgY0AMIGJAoGBAMLiwP1ElMJDJbxGuezQgHwyeR1Z
kj7MASvO4SnxWOMnFjiRjXoRXKQFDLiOj/mX6xKyaqmhC+15AqsF5gDAoylRAaAI
CB9EtIhZQfqCeO7H5yZZOfKccucAEKOjixe7EZ2Lzkif6Uy5Vy9qYTewuNYyIMil
sLHTp3TaPkPtGyKLAgMBAAGjgZkwgZYwCQYDVR0TBAIwADAsBglghkgBhvhCAQ0E
HxYdT3BlblNTTCBHZW5lcmF0ZWQgQ2VydGlmaWNhdGUwHQYDVR0OBBYEFEMkwV53
6SZ0FyPwre0KQQfhXP6YMDwGA1UdIwQ1MDOhJqQkMCIxCzAJBgNVBAYTAktSMRMw
EQYDVQQDDApraW10YWV5YW5nggkAnKF8f9PYKjUwDQYJKoZIhvcNAQELBQADgYEA
toiKZ61uRiM1MHKravupp1ZTH5G0odfstUltPdCDzAPABCJ/DXrRev+/p4AMag3T
rTdgzh9DTss2qwd2p1CpYTHIyBRs3iACvdcRcc2sEsk/SD11qyMYqajBgQMxx2Q5
cxrAqOTzGNfd1wE4qiyKdNLT37C+3cf+EHMmMlibQIY=
-----END CERTIFICATE-----
