Certificate:
    Data:
        Version: 3 (0x2)
        Serial Number: 2 (0x2)
    Signature Algorithm: sha256WithRSAEncryption
        Issuer: C=KR, CN=kimtaeyang
        Validity
            Not Before: Mar  1 00:00:00 2014 GMT
            Not After : Feb 27 00:00:00 2024 GMT
        Subject: C=KR, CN=www.googleapis.com
        Subject Public Key Info:
            Public Key Algorithm: rsaEncryption
                Public-Key: (1024 bit)
                Modulus:
                    00:e9:ab:2d:49:34:6f:70:3e:65:68:5f:8f:fd:ea:
                    fc:d9:13:e2:30:08:b2:37:ee:20:a5:0a:9b:a1:f4:
                    63:e5:58:27:3e:84:79:e4:84:17:9b:98:77:10:30:
                    78:97:6a:d5:42:cc:03:6b:4b:8a:14:fb:09:c9:52:
                    f1:2c:61:06:b1:74:59:cc:70:6b:e2:cd:c6:9c:0b:
                    88:b3:5a:17:c7:b2:ab:cb:1b:82:72:a5:17:47:5e:
                    a9:da:35:36:d8:a2:7f:cf:d2:90:2a:26:e8:b7:28:
                    05:65:f6:4f:a1:76:f1:57:f1:f4:2a:11:12:a5:66:
                    fd:32:a0:a4:ca:ba:e6:49:7b
                Exponent: 65537 (0x10001)
        X509v3 extensions:
            X509v3 Basic Constraints: 
                CA:FALSE
            Netscape Comment: 
                OpenSSL Generated Certificate
            X509v3 Subject Key Identifier: 
                FE:8C:9C:6F:0C:EB:97:92:AE:B7:21:71:5F:E8:CE:C6:D1:9C:81:68
            X509v3 Authority Key Identifier: 
                DirName:/C=KR/CN=kimtaeyang
                serial:9C:A1:7C:7F:D3:D8:2A:35

    Signature Algorithm: sha256WithRSAEncryption
         70:6f:ce:0a:a0:41:a8:c2:38:9f:14:42:ed:d7:da:9f:87:9c:
         bd:5b:c8:7e:06:b1:0f:ca:e2:bf:ee:e9:f7:cd:a6:fa:7d:f9:
         01:45:da:97:60:24:c3:00:61:35:19:7e:68:36:c9:bb:65:bd:
         78:8e:5d:11:52:61:f8:50:03:6c:71:66:5b:ed:a2:d0:72:63:
         65:e5:32:55:ce:24:e2:be:bf:db:92:90:18:b8:73:7e:dc:6a:
         42:01:05:69:1a:b9:b2:7d:31:f1:6c:ec:f4:71:3a:52:c7:65:
         7c:8c:1b:1b:4d:49:33:2d:6c:fc:c7:49:04:6a:49:97:17:c3:
         6d:b4
-----BEGIN CERTIFICATE-----
MIICYDCCAcmgAwIBAgIBAjANBgkqhkiG9w0BAQsFADAiMQswCQYDVQQGEwJLUjET
MBEGA1UEAwwKa2ltdGFleWFuZzAiGA8yMDE0MDMwMTAwMDAwMFoYDzIwMjQwMjI3
MDAwMDAwWjAqMQswCQYDVQQGEwJLUjEbMBkGA1UEAwwSd3d3Lmdvb2dsZWFwaXMu
Y29tMIGfMA0GCSqGSIb3DQEBAQUAA4GNADCBiQKBgQDpqy1JNG9wPmVoX4/96vzZ
E+IwCLI37iClCpuh9GPlWCc+hHnkhBebmHcQMHiXatVCzANrS4oU+wnJUvEsYQax
dFnMcGvizcacC4izWhfHsqvLG4JypRdHXqnaNTbYon/P0pAqJui3KAVl9k+hdvFX
8fQqERKlZv0yoKTKuuZJewIDAQABo4GZMIGWMAkGA1UdEwQCMAAwLAYJYIZIAYb4
QgENBB8WHU9wZW5TU0wgR2VuZXJhdGVkIENlcnRpZmljYXRlMB0GA1UdDgQWBBT+
jJxvDOuXkq63IXFf6M7G0ZyBaDA8BgNVHSMENTAzoSakJDAiMQswCQYDVQQGEwJL
UjETMBEGA1UEAwwKa2ltdGFleWFuZ4IJAJyhfH/T2Co1MA0GCSqGSIb3DQEBCwUA
A4GBAHBvzgqgQajCOJ8UQu3X2p+HnL1byH4GsQ/K4r/u6ffNpvp9+QFF2pdgJMMA
YTUZfmg2ybtlvXiOXRFSYfhQA2xxZlvtotByY2XlMlXOJOK+v9uSkBi4c37cakIB
BWkaubJ9MfFs7PRxOlLHZXyMGxtNSTMtbPzHSQRqSZcXw220
-----END CERTIFICATE-----
